(dp0
S'browseapp'
p1
S'C:\\Program Files\\Blender Foundation\\Blender\\'
p2
sS'browsefile_0'
p3
VC:/Users/grant/Desktop/Reallusion Characters/Custom3
p4
sS'blenderpath'
p5
S'C:\\Program Files\\Blender Foundation\\Blender\\blender.exe'
p6
s.